; Function Attrs: mustprogress nofree norecurse nosync nounwind willreturn memory(argmem: read) uwtable
define hidden noundef double @_ZN2cv8ximgproc15EdgeDrawingImpl3NFAEdi(ptr noundef nonnull readonly align 8 captures(none) dereferenceable(976) %0, double noundef %1, i32 noundef %2) local_unnamed_addr #11 align 2 {
  %4 = getelementptr inbounds nuw i8, ptr %0, i64 376
  %5 = load i32, ptr %4, align 8, !tbaa !198
  %6 = sitofp i32 %5 to double
  %7 = icmp sgt i32 %2, 0
  %8 = icmp sgt i32 %5, 1
  %9 = select i1 %7, i1 %8, i1 false
  br i1 %9, label %.lr.ph, label %._crit_edge

._crit_edge:                                      ; preds = %.lr.ph, %3
  %.07.lcssa = phi double [ %6, %3 ], [ %10, %.lr.ph ]
  ret double %.07.lcssa

.lr.ph:                                           ; preds = %3, %.lr.ph
  %.09 = phi i32 [ %11, %.lr.ph ], [ 0, %3 ]
  %.078 = phi double [ %10, %.lr.ph ], [ %6, %3 ]
  %10 = fmul double %1, %.078
  %11 = add nuw nsw i32 %.09, 1
  %12 = icmp slt i32 %11, %2
  %13 = fcmp ogt double %10, 1.000000e+00
  %14 = select i1 %12, i1 %13, i1 false
  br i1 %14, label %.lr.ph, label %._crit_edge, !llvm.loop !268
}